; Function Attrs: mustprogress nofree nounwind willreturn uwtable
define hidden noalias noundef ptr @python_hashlib_Hacl_Hash_Blake2s_malloc_with_key(ptr noundef readonly captures(none) %0, i8 noundef zeroext %1) local_unnamed_addr #8 {
  %3 = alloca [8 x i8], align 8
  %4 = alloca [8 x i8], align 8
  %5 = alloca %struct.Hacl_Hash_Blake2b_blake2_params_s, align 8
  call void @llvm.lifetime.start.p0(i64 8, ptr nonnull %3) #20
  store i64 0, ptr %3, align 8
  call void @llvm.lifetime.start.p0(i64 8, ptr nonnull %4) #20
  store i64 0, ptr %4, align 8
  %.sroa.11.0..sroa_idx = getelementptr inbounds nuw i8, ptr %5, i64 18
  call void @llvm.lifetime.start.p0(i64 40, ptr nonnull %5) #20
  call void @llvm.memset.p0.i64(ptr noundef nonnull align 2 dereferenceable(6) %.sroa.11.0..sroa_idx, i8 0, i64 6, i1 false)
  store i8 32, ptr %5, align 8, !tbaa !9
  %.sroa.4.0..sroa_idx = getelementptr inbounds nuw i8, ptr %5, i64 1
  store i8 %1, ptr %.sroa.4.0..sroa_idx, align 1, !tbaa !9
  %.sroa.5.0..sroa_idx = getelementptr inbounds nuw i8, ptr %5, i64 2
  store i8 1, ptr %.sroa.5.0..sroa_idx, align 2, !tbaa !9
  %.sroa.6.0..sroa_idx = getelementptr inbounds nuw i8, ptr %5, i64 3
  store i8 1, ptr %.sroa.6.0..sroa_idx, align 1, !tbaa !9
  %.sroa.7.0..sroa_idx = getelementptr inbounds nuw i8, ptr %5, i64 4
  call void @llvm.memset.p0.i64(ptr noundef nonnull align 4 dereferenceable(14) %.sroa.7.0..sroa_idx, i8 0, i64 14, i1 false)
  %.sroa.12.0..sroa_idx = getelementptr inbounds nuw i8, ptr %5, i64 24
  store ptr %3, ptr %.sroa.12.0..sroa_idx, align 8, !tbaa !15
  %.sroa.13.0..sroa_idx = getelementptr inbounds nuw i8, ptr %5, i64 32
  store ptr %4, ptr %.sroa.13.0..sroa_idx, align 8, !tbaa !15
  %6 = call ptr @python_hashlib_Hacl_Hash_Blake2s_malloc_with_params_and_key(ptr noundef nonnull %5, i1 noundef zeroext false, ptr noundef %0)
  call void @llvm.lifetime.end.p0(i64 40, ptr nonnull %5) #20
  call void @llvm.lifetime.end.p0(i64 8, ptr nonnull %4) #20
  call void @llvm.lifetime.end.p0(i64 8, ptr nonnull %3) #20
  ret ptr %6
}